ccopy_reg
_reconstructor
p0
(cgoogle.oauth2.credentials
Credentials
p1
c__builtin__
object
p2
Ntp3
Rp4
(dp5
S'_quota_project_id'
p6
NsS'_token_uri'
p7
Vhttps://oauth2.googleapis.com/token
p8
sS'_client_secret'
p9
Vuj5tB4jVyZuvtgYq_2SVBBAl
p10
sS'_id_token'
p11
NsS'token'
p12
Vya29.a0AfH6SMBFgGE5H1EaQszK0d5237pBC4SlcTpgQWpp8RsGMCU4l8Vp9lXC6R_dLnVGIDI1X858kaYGHWinWUaDxewRUY0F9Y6-2InFIbGDucXktFDj_EwxH1GW1lJb0kwqs2b9TE8stjBQSD2xVSAoPamd2quQBfrqYpY
p13
sS'_refresh_token'
p14
V1//0gwTDJiRfHW_tCgYIARAAGBASNwF-L9Irc5I_apQWi7r_iifj4c0-O3mzuh9KhyqQPcsEhKV6DGt4tEZTfe9geNkGo-MY-DK058w
p15
sS'_scopes'
p16
(lp17
S'https://www.googleapis.com/auth/calendar'
p18
asS'_client_id'
p19
V175116208119-5hk60jtv13b83j6mj6dhhknamc505pcd.apps.googleusercontent.com
p20
sS'expiry'
p21
cdatetime
datetime
p22
(S'\x07\xe4\x05\x14\t2+\x0c\xd6%'
p23
tp24
Rp25
sb.